; Function Attrs: nounwind uwtable
define internal noundef i32 @yvu9ToYv12Wrapper(ptr noundef readonly captures(none) %0, ptr noundef readonly captures(none) %1, ptr noundef readonly captures(none) %2, i32 noundef %3, i32 noundef returned %4, ptr noundef readonly captures(none) %5, ptr noundef readonly captures(none) %6) #3 {
  %8 = load ptr, ptr %1, align 8, !tbaa !49
  %9 = load i32, ptr %2, align 4, !tbaa !48
  %10 = getelementptr inbounds nuw i8, ptr %0, i64 56
  %11 = load i32, ptr %10, align 8, !tbaa !50
  %12 = load ptr, ptr %5, align 8, !tbaa !49
  %13 = load i32, ptr %6, align 4, !tbaa !48
  %14 = mul nsw i32 %13, %3
  %15 = sext i32 %14 to i64
  %16 = getelementptr inbounds i8, ptr %12, i64 %15
  %17 = icmp eq i32 %13, %9
  %18 = icmp sgt i32 %9, 0
  %or.cond.i = and i1 %18, %17
  br i1 %or.cond.i, label %23, label %.preheader.i

.preheader.i:                                     ; preds = %7
  %19 = icmp sgt i32 %4, 0
  br i1 %19, label %.lr.ph.i, label %ff_copyPlane.exit

.lr.ph.i:                                         ; preds = %.preheader.i
  %20 = sext i32 %11 to i64
  %21 = sext i32 %9 to i64
  %22 = sext i32 %13 to i64
  br label %26

23:                                               ; preds = %7
  %24 = mul nsw i32 %9, %4
  %25 = sext i32 %24 to i64
  tail call void @llvm.memcpy.p0.p0.i64(ptr align 1 %16, ptr readonly align 1 %8, i64 %25, i1 false)
  br label %ff_copyPlane.exit

26:                                               ; preds = %26, %.lr.ph.i
  %.025.i = phi i32 [ 0, %.lr.ph.i ], [ %29, %26 ]
  %.02024.i = phi ptr [ %8, %.lr.ph.i ], [ %27, %26 ]
  %.02123.i = phi ptr [ %16, %.lr.ph.i ], [ %28, %26 ]
  tail call void @llvm.memcpy.p0.p0.i64(ptr align 1 %.02123.i, ptr align 1 %.02024.i, i64 %20, i1 false)
  %27 = getelementptr inbounds i8, ptr %.02024.i, i64 %21
  %28 = getelementptr inbounds i8, ptr %.02123.i, i64 %22
  %29 = add nuw nsw i32 %.025.i, 1
  %exitcond.not.i = icmp eq i32 %29, %4
  br i1 %exitcond.not.i, label %ff_copyPlane.exit, label %26, !llvm.loop !4

ff_copyPlane.exit:                                ; preds = %26, %.preheader.i, %23
  %30 = load ptr, ptr @planar2x, align 8, !tbaa !51
  %31 = getelementptr inbounds nuw i8, ptr %1, i64 8
  %32 = load ptr, ptr %31, align 8, !tbaa !49
  %33 = getelementptr inbounds nuw i8, ptr %5, i64 8
  %34 = load ptr, ptr %33, align 8, !tbaa !49
  %35 = getelementptr inbounds nuw i8, ptr %6, i64 4
  %36 = load i32, ptr %35, align 4, !tbaa !48
  %37 = ashr i32 %3, 1
  %38 = mul nsw i32 %36, %37
  %39 = sext i32 %38 to i64
  %40 = getelementptr inbounds i8, ptr %34, i64 %39
  %41 = getelementptr inbounds nuw i8, ptr %0, i64 184
  %42 = load i32, ptr %41, align 8, !tbaa !52
  %43 = ashr i32 %4, 2
  %44 = getelementptr inbounds nuw i8, ptr %2, i64 4
  %45 = load i32, ptr %44, align 4, !tbaa !48
  tail call void %30(ptr noundef %32, ptr noundef %40, i32 noundef %42, i32 noundef %43, i32 noundef %45, i32 noundef %36) #13
  %46 = load ptr, ptr @planar2x, align 8, !tbaa !51
  %47 = getelementptr inbounds nuw i8, ptr %1, i64 16
  %48 = load ptr, ptr %47, align 8, !tbaa !49
  %49 = getelementptr inbounds nuw i8, ptr %5, i64 16
  %50 = load ptr, ptr %49, align 8, !tbaa !49
  %51 = getelementptr inbounds nuw i8, ptr %6, i64 8
  %52 = load i32, ptr %51, align 4, !tbaa !48
  %53 = mul nsw i32 %52, %37
  %54 = sext i32 %53 to i64
  %55 = getelementptr inbounds i8, ptr %50, i64 %54
  %56 = load i32, ptr %41, align 8, !tbaa !52
  %57 = getelementptr inbounds nuw i8, ptr %2, i64 8
  %58 = load i32, ptr %57, align 4, !tbaa !48
  tail call void %46(ptr noundef %48, ptr noundef %55, i32 noundef %56, i32 noundef %43, i32 noundef %58, i32 noundef %52) #13
  %59 = getelementptr inbounds nuw i8, ptr %5, i64 24
  %60 = load ptr, ptr %59, align 8, !tbaa !49
  %.not = icmp ne ptr %60, null
  %61 = icmp sgt i32 %4, 0
  %or.cond = and i1 %61, %.not
  br i1 %or.cond, label %.lr.ph.i29, label %fillPlane.exit

.lr.ph.i29:                                       ; preds = %ff_copyPlane.exit
  %62 = load i32, ptr %10, align 8, !tbaa !50
  %63 = getelementptr inbounds nuw i8, ptr %6, i64 12
  %64 = load i32, ptr %63, align 4, !tbaa !48
  %65 = mul nsw i32 %64, %3
  %66 = sext i32 %65 to i64
  %67 = getelementptr inbounds i8, ptr %60, i64 %66
  %68 = sext i32 %62 to i64
  %69 = sext i32 %64 to i64
  br label %70

70:                                               ; preds = %70, %.lr.ph.i29
  %.012.i = phi ptr [ %67, %.lr.ph.i29 ], [ %71, %70 ]
  %.01011.i = phi i32 [ 0, %.lr.ph.i29 ], [ %72, %70 ]
  tail call void @llvm.memset.p0.i64(ptr align 1 %.012.i, i8 -1, i64 %68, i1 false)
  %71 = getelementptr inbounds i8, ptr %.012.i, i64 %69
  %72 = add nuw nsw i32 %.01011.i, 1
  %exitcond.not.i30 = icmp eq i32 %72, %4
  br i1 %exitcond.not.i30, label %fillPlane.exit, label %70, !llvm.loop !64

fillPlane.exit:                                   ; preds = %70, %ff_copyPlane.exit
  ret i32 %4
}